; Function Attrs: mustprogress nounwind uwtable
define hidden void @_ZN4cvc58internal3smt11SygusSolverD2Ev(ptr noundef nonnull align 8 dereferenceable(456) %this) unnamed_addr #4 align 2 personality ptr @__gxx_personality_v0 {
entry:
  store ptr getelementptr inbounds ({ [4 x ptr] }, ptr @_ZTVN4cvc58internal3smt11SygusSolverE, i64 0, i32 0, i64 2), ptr %this, align 8
  %d_subsolver = getelementptr inbounds i8, ptr %this, i64 448
  %0 = load ptr, ptr %d_subsolver, align 8
  %cmp.not.i = icmp eq ptr %0, null
  br i1 %cmp.not.i, label %_ZNSt10unique_ptrIN4cvc58internal12SolverEngineESt14default_deleteIS2_EED2Ev.exit, label %_ZNKSt14default_deleteIN4cvc58internal12SolverEngineEEclEPS2_.exit.i

_ZNKSt14default_deleteIN4cvc58internal12SolverEngineEEclEPS2_.exit.i: ; preds = %entry
  tail call void @_ZN4cvc58internal12SolverEngineD1Ev(ptr noundef nonnull align 8 dereferenceable(224) %0) #19
  tail call void @_ZdlPv(ptr noundef nonnull %0) #22
  br label %_ZNSt10unique_ptrIN4cvc58internal12SolverEngineESt14default_deleteIS2_EED2Ev.exit

_ZNSt10unique_ptrIN4cvc58internal12SolverEngineESt14default_deleteIS2_EED2Ev.exit: ; preds = %entry, %_ZNKSt14default_deleteIN4cvc58internal12SolverEngineEEclEPS2_.exit.i
  store ptr null, ptr %d_subsolver, align 8
  %d_subsolverCd = getelementptr inbounds i8, ptr %this, i64 400
  store ptr getelementptr inbounds ({ [6 x ptr] }, ptr @_ZTVN4cvc57context3CDOIPNS_8internal12SolverEngineEEE, i64 0, i32 0, i64 2), ptr %d_subsolverCd, align 8
  invoke void @_ZN4cvc57context10ContextObj7destroyEv(ptr noundef nonnull align 8 dereferenceable(40) %d_subsolverCd)
          to label %_ZN4cvc57context3CDOIPNS_8internal12SolverEngineEED2Ev.exit unwind label %terminate.lpad.i

terminate.lpad.i:                                 ; preds = %_ZNSt10unique_ptrIN4cvc58internal12SolverEngineESt14default_deleteIS2_EED2Ev.exit
  %1 = landingpad { ptr, i32 }
          catch ptr null
  %2 = extractvalue { ptr, i32 } %1, 0
  tail call void @__clang_call_terminate(ptr %2) #21
  unreachable

_ZN4cvc57context3CDOIPNS_8internal12SolverEngineEED2Ev.exit: ; preds = %_ZNSt10unique_ptrIN4cvc58internal12SolverEngineESt14default_deleteIS2_EED2Ev.exit
  %d_sygusConjectureStale = getelementptr inbounds i8, ptr %this, i64 352
  store ptr getelementptr inbounds ({ [6 x ptr] }, ptr @_ZTVN4cvc57context3CDOIbEE, i64 0, i32 0, i64 2), ptr %d_sygusConjectureStale, align 8
  invoke void @_ZN4cvc57context10ContextObj7destroyEv(ptr noundef nonnull align 8 dereferenceable(40) %d_sygusConjectureStale)
          to label %_ZN4cvc57context3CDOIbED2Ev.exit unwind label %terminate.lpad.i1

terminate.lpad.i1:                                ; preds = %_ZN4cvc57context3CDOIPNS_8internal12SolverEngineEED2Ev.exit
  %3 = landingpad { ptr, i32 }
          catch ptr null
  %4 = extractvalue { ptr, i32 } %3, 0
  tail call void @__clang_call_terminate(ptr %4) #21
  unreachable

_ZN4cvc57context3CDOIbED2Ev.exit:                 ; preds = %_ZN4cvc57context3CDOIPNS_8internal12SolverEngineEED2Ev.exit
  %d_conj = getelementptr inbounds i8, ptr %this, i64 344
  %5 = load ptr, ptr %d_conj, align 8
  %bf.load.i.i = load i64, ptr %5, align 8
  %6 = and i64 %bf.load.i.i, 1152920405095219200
  %cmp.not.i.i = icmp eq i64 %6, 1152920405095219200
  br i1 %cmp.not.i.i, label %_ZN4cvc58internal12NodeTemplateILb1EED2Ev.exit, label %if.then.i.i

if.then.i.i:                                      ; preds = %_ZN4cvc57context3CDOIbED2Ev.exit
  %bf.value.i.i = add i64 %bf.load.i.i, 1152920405095219200
  %bf.shl.i.i = and i64 %bf.value.i.i, 1152920405095219200
  %bf.clear7.i.i = and i64 %bf.load.i.i, -1152920405095219201
  %bf.set.i.i = or disjoint i64 %bf.shl.i.i, %bf.clear7.i.i
  store i64 %bf.set.i.i, ptr %5, align 8
  %cmp12.i.i = icmp eq i64 %bf.shl.i.i, 0
  br i1 %cmp12.i.i, label %if.then13.i.i, label %_ZN4cvc58internal12NodeTemplateILb1EED2Ev.exit

if.then13.i.i:                                    ; preds = %if.then.i.i
  invoke void @_ZN4cvc58internal4expr9NodeValue15markForDeletionEv(ptr noundef nonnull align 8 dereferenceable(16) %5)
          to label %_ZN4cvc58internal12NodeTemplateILb1EED2Ev.exit unwind label %terminate.lpad.i2

terminate.lpad.i2:                                ; preds = %if.then13.i.i
  %7 = landingpad { ptr, i32 }
          catch ptr null
  %8 = extractvalue { ptr, i32 } %7, 0
  tail call void @__clang_call_terminate(ptr %8) #21
  unreachable

_ZN4cvc58internal12NodeTemplateILb1EED2Ev.exit:   ; preds = %_ZN4cvc57context3CDOIbED2Ev.exit, %if.then.i.i, %if.then13.i.i
  %d_sygusFunSymbols = getelementptr inbounds i8, ptr %this, i64 264
  tail call void @_ZN4cvc57context6CDListINS_8internal12NodeTemplateILb1EEENS0_14DefaultCleanUpIS4_EESaIS4_EED2Ev(ptr noundef nonnull align 8 dereferenceable(74) %d_sygusFunSymbols) #19
  %d_sygusAssumps = getelementptr inbounds i8, ptr %this, i64 184
  tail call void @_ZN4cvc57context6CDListINS_8internal12NodeTemplateILb1EEENS0_14DefaultCleanUpIS4_EESaIS4_EED2Ev(ptr noundef nonnull align 8 dereferenceable(74) %d_sygusAssumps) #19
  %d_sygusConstraints = getelementptr inbounds i8, ptr %this, i64 104
  tail call void @_ZN4cvc57context6CDListINS_8internal12NodeTemplateILb1EEENS0_14DefaultCleanUpIS4_EESaIS4_EED2Ev(ptr noundef nonnull align 8 dereferenceable(74) %d_sygusConstraints) #19
  %d_sygusVars = getelementptr inbounds i8, ptr %this, i64 24
  tail call void @_ZN4cvc57context6CDListINS_8internal12NodeTemplateILb1EEENS0_14DefaultCleanUpIS4_EESaIS4_EED2Ev(ptr noundef nonnull align 8 dereferenceable(74) %d_sygusVars) #19
  ret void
}